; ModuleID = '14/1008.c'
source_filename = "14/1008.c"
target datalayout = "e-m:e-p270:32:32-p271:32:32-p272:64:64-i64:64-f80:128-n8:16:32:64-S128"
target triple = "x86_64-pc-linux-gnu"

%struct.statistics = type { i32, i32, i32, i32 }

@.str = private unnamed_addr constant [3 x i8] c"%d\00", align 1
@.str.1 = private unnamed_addr constant [9 x i8] c"%d %d %d\00", align 1
@form = common dso_local global [100000 x %struct.statistics] zeroinitializer, align 16
@temp = common dso_local global %struct.statistics zeroinitializer, align 4
@.str.2 = private unnamed_addr constant [7 x i8] c"%d %d\0A\00", align 1

; Function Attrs: noinline nounwind uwtable
define dso_local i32 @main() #0 {
  %1 = alloca i32, align 4
  %2 = alloca i32, align 4
  %3 = alloca i32, align 4
  %4 = alloca i32, align 4
  %5 = alloca i32, align 4
  store i32 0, i32* %1, align 4
  %6 = call i32 (i8*, ...) @__isoc99_scanf(i8* getelementptr inbounds ([3 x i8], [3 x i8]* @.str, i64 0, i64 0), i32* %2)
  store i32 0, i32* %3, align 4
  br label %7

7:                                                ; preds = %40, %0
  %8 = load i32, i32* %3, align 4
  %9 = load i32, i32* %2, align 4
  %10 = icmp slt i32 %8, %9
  br i1 %10, label %11, label %43

11:                                               ; preds = %7
  %12 = load i32, i32* %3, align 4
  %13 = sext i32 %12 to i64
  %14 = getelementptr inbounds [100000 x %struct.statistics], [100000 x %struct.statistics]* @form, i64 0, i64 %13
  %15 = getelementptr inbounds %struct.statistics, %struct.statistics* %14, i32 0, i32 0
  %16 = load i32, i32* %3, align 4
  %17 = sext i32 %16 to i64
  %18 = getelementptr inbounds [100000 x %struct.statistics], [100000 x %struct.statistics]* @form, i64 0, i64 %17
  %19 = getelementptr inbounds %struct.statistics, %struct.statistics* %18, i32 0, i32 1
  %20 = load i32, i32* %3, align 4
  %21 = sext i32 %20 to i64
  %22 = getelementptr inbounds [100000 x %struct.statistics], [100000 x %struct.statistics]* @form, i64 0, i64 %21
  %23 = getelementptr inbounds %struct.statistics, %struct.statistics* %22, i32 0, i32 2
  %24 = call i32 (i8*, ...) @__isoc99_scanf(i8* getelementptr inbounds ([9 x i8], [9 x i8]* @.str.1, i64 0, i64 0), i32* %15, i32* %19, i32* %23)
  %25 = load i32, i32* %3, align 4
  %26 = sext i32 %25 to i64
  %27 = getelementptr inbounds [100000 x %struct.statistics], [100000 x %struct.statistics]* @form, i64 0, i64 %26
  %28 = getelementptr inbounds %struct.statistics, %struct.statistics* %27, i32 0, i32 1
  %29 = load i32, i32* %28, align 4
  %30 = load i32, i32* %3, align 4
  %31 = sext i32 %30 to i64
  %32 = getelementptr inbounds [100000 x %struct.statistics], [100000 x %struct.statistics]* @form, i64 0, i64 %31
  %33 = getelementptr inbounds %struct.statistics, %struct.statistics* %32, i32 0, i32 2
  %34 = load i32, i32* %33, align 8
  %35 = add nsw i32 %29, %34
  %36 = load i32, i32* %3, align 4
  %37 = sext i32 %36 to i64
  %38 = getelementptr inbounds [100000 x %struct.statistics], [100000 x %struct.statistics]* @form, i64 0, i64 %37
  %39 = getelementptr inbounds %struct.statistics, %struct.statistics* %38, i32 0, i32 3
  store i32 %35, i32* %39, align 4
  br label %40

40:                                               ; preds = %11
  %41 = load i32, i32* %3, align 4
  %42 = add nsw i32 %41, 1
  store i32 %42, i32* %3, align 4
  br label %7

43:                                               ; preds = %7
  store i32 0, i32* %3, align 4
  br label %44

44:                                               ; preds = %102, %43
  %45 = load i32, i32* %3, align 4
  %46 = icmp slt i32 %45, 3
  br i1 %46, label %47, label %52

47:                                               ; preds = %44
  %48 = load i32, i32* %3, align 4
  %49 = load i32, i32* %2, align 4
  %50 = sub nsw i32 %49, 1
  %51 = icmp slt i32 %48, %50
  br label %52

52:                                               ; preds = %47, %44
  %53 = phi i1 [ false, %44 ], [ %51, %47 ]
  br i1 %53, label %54, label %105

54:                                               ; preds = %52
  %55 = load i32, i32* %3, align 4
  store i32 %55, i32* %5, align 4
  %56 = load i32, i32* %3, align 4
  %57 = add nsw i32 %56, 1
  store i32 %57, i32* %4, align 4
  br label %58

58:                                               ; preds = %77, %54
  %59 = load i32, i32* %4, align 4
  %60 = load i32, i32* %2, align 4
  %61 = icmp slt i32 %59, %60
  br i1 %61, label %62, label %80

62:                                               ; preds = %58
  %63 = load i32, i32* %4, align 4
  %64 = sext i32 %63 to i64
  %65 = getelementptr inbounds [100000 x %struct.statistics], [100000 x %struct.statistics]* @form, i64 0, i64 %64
  %66 = getelementptr inbounds %struct.statistics, %struct.statistics* %65, i32 0, i32 3
  %67 = load i32, i32* %66, align 4
  %68 = load i32, i32* %5, align 4
  %69 = sext i32 %68 to i64
  %70 = getelementptr inbounds [100000 x %struct.statistics], [100000 x %struct.statistics]* @form, i64 0, i64 %69
  %71 = getelementptr inbounds %struct.statistics, %struct.statistics* %70, i32 0, i32 3
  %72 = load i32, i32* %71, align 4
  %73 = icmp sgt i32 %67, %72
  br i1 %73, label %74, label %76

74:                                               ; preds = %62
  %75 = load i32, i32* %4, align 4
  store i32 %75, i32* %5, align 4
  br label %76

76:                                               ; preds = %74, %62
  br label %77

77:                                               ; preds = %76
  %78 = load i32, i32* %4, align 4
  %79 = add nsw i32 %78, 1
  store i32 %79, i32* %4, align 4
  br label %58

80:                                               ; preds = %58
  %81 = load i32, i32* %5, align 4
  %82 = load i32, i32* %3, align 4
  %83 = icmp ne i32 %81, %82
  br i1 %83, label %84, label %101

84:                                               ; preds = %80
  %85 = load i32, i32* %3, align 4
  %86 = sext i32 %85 to i64
  %87 = getelementptr inbounds [100000 x %struct.statistics], [100000 x %struct.statistics]* @form, i64 0, i64 %86
  %88 = bitcast %struct.statistics* %87 to i8*
  call void @llvm.memcpy.p0i8.p0i8.i64(i8* align 4 bitcast (%struct.statistics* @temp to i8*), i8* align 16 %88, i64 16, i1 false)
  %89 = load i32, i32* %3, align 4
  %90 = sext i32 %89 to i64
  %91 = getelementptr inbounds [100000 x %struct.statistics], [100000 x %struct.statistics]* @form, i64 0, i64 %90
  %92 = load i32, i32* %5, align 4
  %93 = sext i32 %92 to i64
  %94 = getelementptr inbounds [100000 x %struct.statistics], [100000 x %struct.statistics]* @form, i64 0, i64 %93
  %95 = bitcast %struct.statistics* %91 to i8*
  %96 = bitcast %struct.statistics* %94 to i8*
  call void @llvm.memcpy.p0i8.p0i8.i64(i8* align 16 %95, i8* align 16 %96, i64 16, i1 false)
  %97 = load i32, i32* %5, align 4
  %98 = sext i32 %97 to i64
  %99 = getelementptr inbounds [100000 x %struct.statistics], [100000 x %struct.statistics]* @form, i64 0, i64 %98
  %100 = bitcast %struct.statistics* %99 to i8*
  call void @llvm.memcpy.p0i8.p0i8.i64(i8* align 16 %100, i8* align 4 bitcast (%struct.statistics* @temp to i8*), i64 16, i1 false)
  br label %101

101:                                              ; preds = %84, %80
  br label %102

102:                                              ; preds = %101
  %103 = load i32, i32* %3, align 4
  %104 = add nsw i32 %103, 1
  store i32 %104, i32* %3, align 4
  br label %44

105:                                              ; preds = %52
  store i32 0, i32* %3, align 4
  br label %106

106:                                              ; preds = %127, %105
  %107 = load i32, i32* %3, align 4
  %108 = icmp slt i32 %107, 3
  br i1 %108, label %109, label %113

109:                                              ; preds = %106
  %110 = load i32, i32* %3, align 4
  %111 = load i32, i32* %2, align 4
  %112 = icmp slt i32 %110, %111
  br label %113

113:                                              ; preds = %109, %106
  %114 = phi i1 [ false, %106 ], [ %112, %109 ]
  br i1 %114, label %115, label %130

115:                                              ; preds = %113
  %116 = load i32, i32* %3, align 4
  %117 = sext i32 %116 to i64
  %118 = getelementptr inbounds [100000 x %struct.statistics], [100000 x %struct.statistics]* @form, i64 0, i64 %117
  %119 = getelementptr inbounds %struct.statistics, %struct.statistics* %118, i32 0, i32 0
  %120 = load i32, i32* %119, align 16
  %121 = load i32, i32* %3, align 4
  %122 = sext i32 %121 to i64
  %123 = getelementptr inbounds [100000 x %struct.statistics], [100000 x %struct.statistics]* @form, i64 0, i64 %122
  %124 = getelementptr inbounds %struct.statistics, %struct.statistics* %123, i32 0, i32 3
  %125 = load i32, i32* %124, align 4
  %126 = call i32 (i8*, ...) @printf(i8* getelementptr inbounds ([7 x i8], [7 x i8]* @.str.2, i64 0, i64 0), i32 %120, i32 %125)
  br label %127

127:                                              ; preds = %115
  %128 = load i32, i32* %3, align 4
  %129 = add nsw i32 %128, 1
  store i32 %129, i32* %3, align 4
  br label %106

130:                                              ; preds = %113
  ret i32 0
}

declare dso_local i32 @__isoc99_scanf(i8*, ...) #1

; Function Attrs: argmemonly nounwind willreturn
declare void @llvm.memcpy.p0i8.p0i8.i64(i8* noalias nocapture writeonly, i8* noalias nocapture readonly, i64, i1 immarg) #2

declare dso_local i32 @printf(i8*, ...) #1


!llvm.module.flags = !{!0}
!llvm.ident = !{!1}

!0 = !{i32 1, !"wchar_size", i32 4}
!1 = !{!"clang version 10.0.0-4ubuntu1 "}
